;
; File generated by cc65 v 2.15
;
	.fopt		compiler,"cc65 v 2.15"
	.setcpu		"6502"
	.smart		on
	.autoimport	on
	.case		on
	.debuginfo	off
	.importzp	sp, sreg, regsave, regbank
	.importzp	tmp1, tmp2, tmp3, tmp4, ptr1, ptr2, ptr3, ptr4
	.macpack	longbranch
	.forceimport	__STARTUP__
	.import		_pal_bg
	.import		_ppu_off
	.import		_ppu_on_all
	.import		_vram_adr
	.import		_vram_put
	.import		_vram_fill
	.import		_vram_unrle
	.import		_get_at_addr
	.export		_blocks
	.export		_palette
	.export		_address
	.export		_main

.segment	"RODATA"

_blocks:
	.byte	$01
	.byte	$10
	.byte	$11
	.byte	$10
	.byte	$11
	.byte	$10
	.byte	$11
	.byte	$10
	.byte	$11
	.byte	$10
	.byte	$11
	.byte	$10
	.byte	$11
	.byte	$10
	.byte	$11
	.byte	$10
	.byte	$11
	.byte	$10
	.byte	$11
	.byte	$10
	.byte	$11
	.byte	$10
	.byte	$11
	.byte	$10
	.byte	$11
	.byte	$10
	.byte	$11
	.byte	$10
	.byte	$11
	.byte	$10
	.byte	$11
	.byte	$10
	.byte	$11
	.byte	$20
	.byte	$21
	.byte	$20
	.byte	$21
	.byte	$20
	.byte	$21
	.byte	$20
	.byte	$21
	.byte	$20
	.byte	$21
	.byte	$20
	.byte	$21
	.byte	$20
	.byte	$21
	.byte	$20
	.byte	$21
	.byte	$20
	.byte	$21
	.byte	$20
	.byte	$21
	.byte	$20
	.byte	$21
	.byte	$20
	.byte	$21
	.byte	$20
	.byte	$21
	.byte	$20
	.byte	$21
	.byte	$20
	.byte	$21
	.byte	$20
	.byte	$21
	.byte	$30
	.byte	$31
	.byte	$30
	.byte	$31
	.byte	$30
	.byte	$31
	.byte	$30
	.byte	$31
	.byte	$30
	.byte	$31
	.byte	$30
	.byte	$31
	.byte	$30
	.byte	$31
	.byte	$30
	.byte	$31
	.byte	$30
	.byte	$31
	.byte	$30
	.byte	$31
	.byte	$30
	.byte	$31
	.byte	$30
	.byte	$31
	.byte	$30
	.byte	$31
	.byte	$30
	.byte	$31
	.byte	$30
	.byte	$31
	.byte	$30
	.byte	$31
	.byte	$40
	.byte	$41
	.byte	$40
	.byte	$41
	.byte	$40
	.byte	$41
	.byte	$40
	.byte	$41
	.byte	$40
	.byte	$41
	.byte	$40
	.byte	$41
	.byte	$40
	.byte	$41
	.byte	$40
	.byte	$41
	.byte	$40
	.byte	$41
	.byte	$40
	.byte	$41
	.byte	$40
	.byte	$41
	.byte	$40
	.byte	$41
	.byte	$40
	.byte	$41
	.byte	$40
	.byte	$41
	.byte	$40
	.byte	$41
	.byte	$40
	.byte	$41
	.byte	$10
	.byte	$11
	.byte	$10
	.byte	$11
	.byte	$10
	.byte	$11
	.byte	$10
	.byte	$11
	.byte	$10
	.byte	$11
	.byte	$10
	.byte	$11
	.byte	$10
	.byte	$11
	.byte	$10
	.byte	$11
	.byte	$10
	.byte	$11
	.byte	$10
	.byte	$11
	.byte	$10
	.byte	$11
	.byte	$10
	.byte	$11
	.byte	$10
	.byte	$11
	.byte	$10
	.byte	$11
	.byte	$10
	.byte	$11
	.byte	$10
	.byte	$11
	.byte	$20
	.byte	$21
	.byte	$20
	.byte	$21
	.byte	$20
	.byte	$21
	.byte	$20
	.byte	$21
	.byte	$20
	.byte	$21
	.byte	$20
	.byte	$21
	.byte	$20
	.byte	$21
	.byte	$20
	.byte	$21
	.byte	$20
	.byte	$21
	.byte	$20
	.byte	$21
	.byte	$20
	.byte	$21
	.byte	$20
	.byte	$21
	.byte	$20
	.byte	$21
	.byte	$20
	.byte	$21
	.byte	$20
	.byte	$21
	.byte	$20
	.byte	$21
	.byte	$30
	.byte	$31
	.byte	$30
	.byte	$31
	.byte	$30
	.byte	$31
	.byte	$30
	.byte	$31
	.byte	$30
	.byte	$31
	.byte	$30
	.byte	$31
	.byte	$30
	.byte	$31
	.byte	$30
	.byte	$31
	.byte	$30
	.byte	$31
	.byte	$30
	.byte	$31
	.byte	$30
	.byte	$31
	.byte	$30
	.byte	$31
	.byte	$30
	.byte	$31
	.byte	$30
	.byte	$31
	.byte	$30
	.byte	$31
	.byte	$30
	.byte	$31
	.byte	$40
	.byte	$41
	.byte	$40
	.byte	$41
	.byte	$40
	.byte	$41
	.byte	$40
	.byte	$41
	.byte	$40
	.byte	$41
	.byte	$40
	.byte	$41
	.byte	$40
	.byte	$41
	.byte	$40
	.byte	$41
	.byte	$40
	.byte	$41
	.byte	$40
	.byte	$41
	.byte	$40
	.byte	$41
	.byte	$40
	.byte	$41
	.byte	$40
	.byte	$41
	.byte	$40
	.byte	$41
	.byte	$40
	.byte	$41
	.byte	$40
	.byte	$41
	.byte	$10
	.byte	$11
	.byte	$10
	.byte	$11
	.byte	$10
	.byte	$11
	.byte	$10
	.byte	$11
	.byte	$10
	.byte	$11
	.byte	$10
	.byte	$11
	.byte	$10
	.byte	$11
	.byte	$10
	.byte	$11
	.byte	$10
	.byte	$11
	.byte	$10
	.byte	$11
	.byte	$10
	.byte	$11
	.byte	$10
	.byte	$11
	.byte	$10
	.byte	$11
	.byte	$10
	.byte	$11
	.byte	$10
	.byte	$11
	.byte	$10
	.byte	$11
	.byte	$20
	.byte	$21
	.byte	$20
	.byte	$21
	.byte	$20
	.byte	$21
	.byte	$20
	.byte	$21
	.byte	$20
	.byte	$21
	.byte	$20
	.byte	$21
	.byte	$20
	.byte	$21
	.byte	$20
	.byte	$21
	.byte	$20
	.byte	$21
	.byte	$20
	.byte	$21
	.byte	$20
	.byte	$21
	.byte	$20
	.byte	$21
	.byte	$20
	.byte	$21
	.byte	$20
	.byte	$21
	.byte	$20
	.byte	$21
	.byte	$20
	.byte	$21
	.byte	$30
	.byte	$31
	.byte	$30
	.byte	$31
	.byte	$30
	.byte	$31
	.byte	$30
	.byte	$31
	.byte	$30
	.byte	$31
	.byte	$30
	.byte	$31
	.byte	$30
	.byte	$31
	.byte	$30
	.byte	$31
	.byte	$30
	.byte	$31
	.byte	$30
	.byte	$31
	.byte	$30
	.byte	$31
	.byte	$30
	.byte	$31
	.byte	$30
	.byte	$31
	.byte	$30
	.byte	$31
	.byte	$30
	.byte	$31
	.byte	$30
	.byte	$31
	.byte	$40
	.byte	$41
	.byte	$40
	.byte	$41
	.byte	$40
	.byte	$41
	.byte	$40
	.byte	$41
	.byte	$40
	.byte	$41
	.byte	$40
	.byte	$41
	.byte	$40
	.byte	$41
	.byte	$40
	.byte	$41
	.byte	$40
	.byte	$41
	.byte	$40
	.byte	$41
	.byte	$40
	.byte	$41
	.byte	$40
	.byte	$41
	.byte	$40
	.byte	$41
	.byte	$40
	.byte	$41
	.byte	$40
	.byte	$41
	.byte	$40
	.byte	$41
	.byte	$10
	.byte	$11
	.byte	$10
	.byte	$11
	.byte	$10
	.byte	$11
	.byte	$10
	.byte	$11
	.byte	$10
	.byte	$11
	.byte	$10
	.byte	$11
	.byte	$10
	.byte	$11
	.byte	$10
	.byte	$11
	.byte	$10
	.byte	$11
	.byte	$10
	.byte	$11
	.byte	$10
	.byte	$11
	.byte	$10
	.byte	$11
	.byte	$10
	.byte	$11
	.byte	$10
	.byte	$11
	.byte	$10
	.byte	$11
	.byte	$10
	.byte	$11
	.byte	$20
	.byte	$21
	.byte	$20
	.byte	$21
	.byte	$20
	.byte	$21
	.byte	$20
	.byte	$21
	.byte	$20
	.byte	$21
	.byte	$20
	.byte	$21
	.byte	$20
	.byte	$21
	.byte	$20
	.byte	$21
	.byte	$20
	.byte	$21
	.byte	$20
	.byte	$21
	.byte	$20
	.byte	$21
	.byte	$20
	.byte	$21
	.byte	$20
	.byte	$21
	.byte	$20
	.byte	$21
	.byte	$20
	.byte	$21
	.byte	$20
	.byte	$21
	.byte	$30
	.byte	$31
	.byte	$30
	.byte	$31
	.byte	$30
	.byte	$31
	.byte	$30
	.byte	$31
	.byte	$30
	.byte	$31
	.byte	$30
	.byte	$31
	.byte	$30
	.byte	$31
	.byte	$30
	.byte	$31
	.byte	$30
	.byte	$31
	.byte	$30
	.byte	$31
	.byte	$30
	.byte	$31
	.byte	$30
	.byte	$31
	.byte	$30
	.byte	$31
	.byte	$30
	.byte	$31
	.byte	$30
	.byte	$31
	.byte	$30
	.byte	$31
	.byte	$40
	.byte	$41
	.byte	$40
	.byte	$41
	.byte	$40
	.byte	$41
	.byte	$40
	.byte	$41
	.byte	$40
	.byte	$41
	.byte	$40
	.byte	$41
	.byte	$40
	.byte	$41
	.byte	$40
	.byte	$41
	.byte	$40
	.byte	$41
	.byte	$40
	.byte	$41
	.byte	$40
	.byte	$41
	.byte	$40
	.byte	$41
	.byte	$40
	.byte	$41
	.byte	$40
	.byte	$41
	.byte	$40
	.byte	$41
	.byte	$40
	.byte	$41
	.byte	$10
	.byte	$11
	.byte	$10
	.byte	$11
	.byte	$10
	.byte	$11
	.byte	$10
	.byte	$11
	.byte	$10
	.byte	$11
	.byte	$10
	.byte	$11
	.byte	$10
	.byte	$11
	.byte	$10
	.byte	$11
	.byte	$10
	.byte	$11
	.byte	$10
	.byte	$11
	.byte	$10
	.byte	$11
	.byte	$10
	.byte	$11
	.byte	$10
	.byte	$11
	.byte	$10
	.byte	$11
	.byte	$10
	.byte	$11
	.byte	$10
	.byte	$11
	.byte	$20
	.byte	$21
	.byte	$20
	.byte	$21
	.byte	$20
	.byte	$21
	.byte	$20
	.byte	$21
	.byte	$20
	.byte	$21
	.byte	$20
	.byte	$21
	.byte	$20
	.byte	$21
	.byte	$20
	.byte	$21
	.byte	$20
	.byte	$21
	.byte	$20
	.byte	$21
	.byte	$20
	.byte	$21
	.byte	$20
	.byte	$21
	.byte	$20
	.byte	$21
	.byte	$20
	.byte	$21
	.byte	$20
	.byte	$21
	.byte	$20
	.byte	$21
	.byte	$30
	.byte	$31
	.byte	$30
	.byte	$31
	.byte	$30
	.byte	$31
	.byte	$30
	.byte	$31
	.byte	$30
	.byte	$31
	.byte	$30
	.byte	$31
	.byte	$30
	.byte	$31
	.byte	$30
	.byte	$31
	.byte	$30
	.byte	$31
	.byte	$30
	.byte	$31
	.byte	$30
	.byte	$31
	.byte	$30
	.byte	$31
	.byte	$30
	.byte	$31
	.byte	$30
	.byte	$31
	.byte	$30
	.byte	$31
	.byte	$30
	.byte	$31
	.byte	$40
	.byte	$41
	.byte	$40
	.byte	$41
	.byte	$40
	.byte	$41
	.byte	$40
	.byte	$41
	.byte	$40
	.byte	$41
	.byte	$40
	.byte	$41
	.byte	$40
	.byte	$41
	.byte	$40
	.byte	$41
	.byte	$40
	.byte	$41
	.byte	$40
	.byte	$41
	.byte	$40
	.byte	$41
	.byte	$40
	.byte	$41
	.byte	$40
	.byte	$41
	.byte	$40
	.byte	$41
	.byte	$40
	.byte	$41
	.byte	$40
	.byte	$41
	.byte	$10
	.byte	$11
	.byte	$10
	.byte	$11
	.byte	$10
	.byte	$11
	.byte	$10
	.byte	$11
	.byte	$10
	.byte	$11
	.byte	$10
	.byte	$11
	.byte	$10
	.byte	$11
	.byte	$10
	.byte	$11
	.byte	$10
	.byte	$11
	.byte	$10
	.byte	$11
	.byte	$10
	.byte	$11
	.byte	$10
	.byte	$11
	.byte	$10
	.byte	$11
	.byte	$10
	.byte	$11
	.byte	$10
	.byte	$11
	.byte	$10
	.byte	$11
	.byte	$20
	.byte	$21
	.byte	$20
	.byte	$21
	.byte	$20
	.byte	$21
	.byte	$20
	.byte	$21
	.byte	$20
	.byte	$21
	.byte	$20
	.byte	$21
	.byte	$20
	.byte	$21
	.byte	$20
	.byte	$21
	.byte	$20
	.byte	$21
	.byte	$20
	.byte	$21
	.byte	$20
	.byte	$21
	.byte	$20
	.byte	$21
	.byte	$20
	.byte	$21
	.byte	$20
	.byte	$21
	.byte	$20
	.byte	$21
	.byte	$20
	.byte	$21
	.byte	$30
	.byte	$31
	.byte	$30
	.byte	$31
	.byte	$30
	.byte	$31
	.byte	$30
	.byte	$31
	.byte	$30
	.byte	$31
	.byte	$30
	.byte	$31
	.byte	$30
	.byte	$31
	.byte	$30
	.byte	$31
	.byte	$30
	.byte	$31
	.byte	$30
	.byte	$31
	.byte	$30
	.byte	$31
	.byte	$30
	.byte	$31
	.byte	$30
	.byte	$31
	.byte	$30
	.byte	$31
	.byte	$30
	.byte	$31
	.byte	$30
	.byte	$31
	.byte	$40
	.byte	$41
	.byte	$40
	.byte	$41
	.byte	$40
	.byte	$41
	.byte	$40
	.byte	$41
	.byte	$40
	.byte	$41
	.byte	$40
	.byte	$41
	.byte	$40
	.byte	$41
	.byte	$40
	.byte	$41
	.byte	$40
	.byte	$41
	.byte	$40
	.byte	$41
	.byte	$40
	.byte	$41
	.byte	$40
	.byte	$41
	.byte	$40
	.byte	$41
	.byte	$40
	.byte	$41
	.byte	$40
	.byte	$41
	.byte	$40
	.byte	$41
	.byte	$10
	.byte	$11
	.byte	$10
	.byte	$11
	.byte	$10
	.byte	$11
	.byte	$10
	.byte	$11
	.byte	$10
	.byte	$11
	.byte	$10
	.byte	$11
	.byte	$10
	.byte	$11
	.byte	$10
	.byte	$11
	.byte	$10
	.byte	$11
	.byte	$10
	.byte	$11
	.byte	$10
	.byte	$11
	.byte	$10
	.byte	$11
	.byte	$10
	.byte	$11
	.byte	$10
	.byte	$11
	.byte	$10
	.byte	$11
	.byte	$10
	.byte	$11
	.byte	$20
	.byte	$21
	.byte	$20
	.byte	$21
	.byte	$20
	.byte	$21
	.byte	$20
	.byte	$21
	.byte	$20
	.byte	$21
	.byte	$20
	.byte	$21
	.byte	$20
	.byte	$21
	.byte	$20
	.byte	$21
	.byte	$20
	.byte	$21
	.byte	$20
	.byte	$21
	.byte	$20
	.byte	$21
	.byte	$20
	.byte	$21
	.byte	$20
	.byte	$21
	.byte	$20
	.byte	$21
	.byte	$20
	.byte	$21
	.byte	$20
	.byte	$21
	.byte	$30
	.byte	$31
	.byte	$30
	.byte	$31
	.byte	$30
	.byte	$31
	.byte	$30
	.byte	$31
	.byte	$30
	.byte	$31
	.byte	$30
	.byte	$31
	.byte	$30
	.byte	$31
	.byte	$30
	.byte	$31
	.byte	$30
	.byte	$31
	.byte	$30
	.byte	$31
	.byte	$30
	.byte	$31
	.byte	$30
	.byte	$31
	.byte	$30
	.byte	$31
	.byte	$30
	.byte	$31
	.byte	$30
	.byte	$31
	.byte	$30
	.byte	$31
	.byte	$40
	.byte	$41
	.byte	$40
	.byte	$41
	.byte	$40
	.byte	$41
	.byte	$40
	.byte	$41
	.byte	$40
	.byte	$41
	.byte	$40
	.byte	$41
	.byte	$40
	.byte	$41
	.byte	$40
	.byte	$41
	.byte	$40
	.byte	$41
	.byte	$40
	.byte	$41
	.byte	$40
	.byte	$41
	.byte	$40
	.byte	$41
	.byte	$40
	.byte	$41
	.byte	$40
	.byte	$41
	.byte	$40
	.byte	$41
	.byte	$40
	.byte	$41
	.byte	$10
	.byte	$11
	.byte	$10
	.byte	$11
	.byte	$10
	.byte	$11
	.byte	$10
	.byte	$11
	.byte	$10
	.byte	$11
	.byte	$10
	.byte	$11
	.byte	$10
	.byte	$11
	.byte	$10
	.byte	$11
	.byte	$10
	.byte	$11
	.byte	$10
	.byte	$11
	.byte	$10
	.byte	$11
	.byte	$10
	.byte	$11
	.byte	$10
	.byte	$11
	.byte	$10
	.byte	$11
	.byte	$10
	.byte	$11
	.byte	$10
	.byte	$11
	.byte	$20
	.byte	$21
	.byte	$20
	.byte	$21
	.byte	$20
	.byte	$21
	.byte	$20
	.byte	$21
	.byte	$20
	.byte	$21
	.byte	$20
	.byte	$21
	.byte	$20
	.byte	$21
	.byte	$20
	.byte	$21
	.byte	$20
	.byte	$21
	.byte	$20
	.byte	$21
	.byte	$20
	.byte	$21
	.byte	$20
	.byte	$21
	.byte	$20
	.byte	$21
	.byte	$20
	.byte	$21
	.byte	$20
	.byte	$21
	.byte	$20
	.byte	$21
	.byte	$00
	.byte	$01
	.byte	$3E
	.byte	$00
	.byte	$01
	.byte	$00
_palette:
	.byte	$0F
	.byte	$00
	.byte	$10
	.byte	$30
	.byte	$0F
	.byte	$01
	.byte	$21
	.byte	$31
	.byte	$0F
	.byte	$06
	.byte	$26
	.byte	$36
	.byte	$0F
	.byte	$09
	.byte	$29
	.byte	$39

.segment	"BSS"

.segment	"ZEROPAGE"
_address:
	.res	2,$00

; ---------------------------------------------------------------
; void __near__ main (void)
; ---------------------------------------------------------------

.segment	"CODE"

.proc	_main: near

.segment	"CODE"

;
; ppu_off(); // screen off
;
	jsr     _ppu_off
;
; pal_bg(palette); // load the palette
;
	lda     #<(_palette)
	ldx     #>(_palette)
	jsr     _pal_bg
;
; vram_adr(NAMETABLE_A);
;
	ldx     #$20
	lda     #$00
	jsr     _vram_adr
;
; vram_unrle(blocks);
;
	lda     #<(_blocks)
	ldx     #>(_blocks)
	jsr     _vram_unrle
;
; address = get_at_addr(0,0,0);
;
	jsr     decsp2
	lda     #$00
	ldy     #$01
	sta     (sp),y
	dey
	sta     (sp),y
	jsr     _get_at_addr
	sta     _address
	stx     _address+1
;
; vram_adr(address); // nametable A's attribute table 23c0-23ff
;
	jsr     _vram_adr
;
; vram_fill(0, 8); // 8 bytes of 00 00 00 00
;
	lda     #$00
	jsr     pusha
	tax
	lda     #$08
	jsr     _vram_fill
;
; vram_fill(0x55, 8); // 8 bytes of 01 01 01 01
;
	lda     #$55
	jsr     pusha
	ldx     #$00
	lda     #$08
	jsr     _vram_fill
;
; vram_fill(0xAA, 8); // 8 bytes of 10 10 10 10
;
	lda     #$AA
	jsr     pusha
	ldx     #$00
	lda     #$08
	jsr     _vram_fill
;
; vram_fill(0xFF, 8); // 8 bytes of 11 11 11 11
;
	lda     #$FF
	jsr     pusha
	ldx     #$00
	lda     #$08
	jsr     _vram_fill
;
; address = get_at_addr(0,0x40,0xa0);
;
	jsr     decsp2
	lda     #$00
	ldy     #$01
	sta     (sp),y
	lda     #$40
	dey
	sta     (sp),y
	lda     #$A0
	jsr     _get_at_addr
	sta     _address
	stx     _address+1
;
; vram_adr(address); // pick a random attribute byte on the lower half
;
	jsr     _vram_adr
;
; vram_put(0xe4); // push 1 byte 11 10 01 00
;
	lda     #$E4
	jsr     _vram_put
;
; ppu_on_all(); // turn on screen
;
	jsr     _ppu_on_all
;
; while (1){
;
L0404:	jmp     L0404

.endproc

